target datalayout = "e-m:e-p270:32:32-p271:32:32-p272:64:64-i64:64-i128:128-f80:128-n8:16:32:64-S128"
target triple = "x86_64-unknown-linux-gnu"

%struct.UEnumeration = type { ptr, ptr, ptr, ptr, ptr, ptr, ptr }
%"class.icu_75::CharsetDetector" = type { ptr, ptr, i32, i8, i8, ptr }
%struct.Context = type { i32, i8, ptr }

; Function Attrs: mustprogress nounwind uwtable
define internal noundef signext i8 @_ZL9U_FAILURE10UErrorCode(i32 noundef %code) #3 {
entry:
  %code.addr = alloca i32, align 4
  store i32 %code, ptr %code.addr, align 4
  %0 = load i32, ptr %code.addr, align 4
  %cmp = icmp sgt i32 %0, 0
  %conv = zext i1 %cmp to i8
  ret i8 %conv
}

; Function Attrs: mustprogress uwtable
define noundef ptr @_ZNK6icu_7515CharsetDetector21getDetectableCharsetsER10UErrorCode(ptr noundef nonnull align 8 dereferenceable(32) %this, ptr noundef nonnull align 4 dereferenceable(4) %status) #0 align 2 {
entry:
  %retval = alloca ptr, align 8
  %this.addr = alloca ptr, align 8
  %status.addr = alloca ptr, align 8
  %en = alloca ptr, align 8
  store ptr %this, ptr %this.addr, align 8
  store ptr %status, ptr %status.addr, align 8
  %this1 = load ptr, ptr %this.addr, align 8
  %0 = load ptr, ptr %status.addr, align 8
  %1 = load i32, ptr %0, align 4
  %call = call noundef signext i8 @_ZL9U_FAILURE10UErrorCode(i32 noundef %1)
  %tobool = icmp ne i8 %call, 0
  br i1 %tobool, label %if.then, label %if.end

if.then:                                          ; preds = %entry
  store ptr null, ptr %retval, align 8
  br label %return

if.end:                                           ; preds = %entry
  %call2 = call noalias ptr @uprv_malloc_75(i64 noundef 56) #10
  store ptr %call2, ptr %en, align 8
  %2 = load ptr, ptr %en, align 8
  %cmp = icmp eq ptr %2, null
  br i1 %cmp, label %if.then3, label %if.end4

if.then3:                                         ; preds = %if.end
  %3 = load ptr, ptr %status.addr, align 8
  store i32 7, ptr %3, align 4
  store ptr null, ptr %retval, align 8
  br label %return

if.end4:                                          ; preds = %if.end
  %4 = load ptr, ptr %en, align 8
  call void @llvm.memcpy.p0.p0.i64(ptr align 8 %4, ptr align 8 @_ZL17gCSDetEnumeration, i64 56, i1 false)
  %call5 = call noalias ptr @uprv_malloc_75(i64 noundef 16) #10
  %5 = load ptr, ptr %en, align 8
  %context = getelementptr inbounds %struct.UEnumeration, ptr %5, i32 0, i32 1
  store ptr %call5, ptr %context, align 8
  %6 = load ptr, ptr %en, align 8
  %context6 = getelementptr inbounds %struct.UEnumeration, ptr %6, i32 0, i32 1
  %7 = load ptr, ptr %context6, align 8
  %cmp7 = icmp eq ptr %7, null
  br i1 %cmp7, label %if.then8, label %if.end9

if.then8:                                         ; preds = %if.end4
  %8 = load ptr, ptr %status.addr, align 8
  store i32 7, ptr %8, align 4
  %9 = load ptr, ptr %en, align 8
  call void @uprv_free_75(ptr noundef %9)
  store ptr null, ptr %retval, align 8
  br label %return

if.end9:                                          ; preds = %if.end4
  %10 = load ptr, ptr %en, align 8
  %context10 = getelementptr inbounds %struct.UEnumeration, ptr %10, i32 0, i32 1
  %11 = load ptr, ptr %context10, align 8
  call void @llvm.memset.p0.i64(ptr align 1 %11, i8 0, i64 16, i1 false)
  %12 = load ptr, ptr %en, align 8
  %context11 = getelementptr inbounds %struct.UEnumeration, ptr %12, i32 0, i32 1
  %13 = load ptr, ptr %context11, align 8
  %all = getelementptr inbounds %struct.Context, ptr %13, i32 0, i32 1
  store i8 0, ptr %all, align 4
  %fEnabledRecognizers = getelementptr inbounds %"class.icu_75::CharsetDetector", ptr %this1, i32 0, i32 5
  %14 = load ptr, ptr %fEnabledRecognizers, align 8
  %15 = load ptr, ptr %en, align 8
  %context12 = getelementptr inbounds %struct.UEnumeration, ptr %15, i32 0, i32 1
  %16 = load ptr, ptr %context12, align 8
  %enabledRecognizers = getelementptr inbounds %struct.Context, ptr %16, i32 0, i32 2
  store ptr %14, ptr %enabledRecognizers, align 8
  %17 = load ptr, ptr %en, align 8
  store ptr %17, ptr %retval, align 8
  br label %return

return:                                           ; preds = %if.end9, %if.then8, %if.then3, %if.then
  %18 = load ptr, ptr %retval, align 8
  ret ptr %18
}