; Function Attrs: mustprogress uwtable
define noundef ptr @_ZNK6icu_7515CharsetDetector21getDetectableCharsetsER10UErrorCode(ptr nocapture noundef nonnull readonly align 8 dereferenceable(32) %this, ptr nocapture noundef nonnull align 4 dereferenceable(4) %status) local_unnamed_addr #0 align 2 {
entry:
  %0 = load i32, ptr %status, align 4
  %cmp.i = icmp slt i32 %0, 1
  br i1 %cmp.i, label %if.end, label %return

if.end:                                           ; preds = %entry
  %call2 = tail call noalias dereferenceable_or_null(56) ptr @uprv_malloc_75(i64 noundef 56) #15
  %cmp = icmp eq ptr %call2, null
  br i1 %cmp, label %if.then3, label %if.end4

if.then3:                                         ; preds = %if.end
  store i32 7, ptr %status, align 4
  br label %return

if.end4:                                          ; preds = %if.end
  tail call void @llvm.memcpy.p0.p0.i64(ptr noundef nonnull align 8 dereferenceable(56) %call2, ptr noundef nonnull align 8 dereferenceable(56) @_ZL17gCSDetEnumeration, i64 56, i1 false)
  %call5 = tail call noalias dereferenceable_or_null(16) ptr @uprv_malloc_75(i64 noundef 16) #15
  %context = getelementptr inbounds i8, ptr %call2, i64 8
  store ptr %call5, ptr %context, align 8
  %cmp7 = icmp eq ptr %call5, null
  br i1 %cmp7, label %if.then8, label %if.end9

if.then8:                                         ; preds = %if.end4
  store i32 7, ptr %status, align 4
  tail call void @uprv_free_75(ptr noundef nonnull %call2)
  br label %return

if.end9:                                          ; preds = %if.end4
  %fEnabledRecognizers = getelementptr inbounds i8, ptr %this, i64 24
  store i64 0, ptr %call5, align 1
  %1 = load ptr, ptr %fEnabledRecognizers, align 8
  %enabledRecognizers = getelementptr inbounds i8, ptr %call5, i64 8
  store ptr %1, ptr %enabledRecognizers, align 8
  br label %return

return:                                           ; preds = %entry, %if.end9, %if.then8, %if.then3
  %retval.0 = phi ptr [ null, %if.then3 ], [ null, %if.then8 ], [ %call2, %if.end9 ], [ null, %entry ]
  ret ptr %retval.0
}